target datalayout = "e-m:e-p270:32:32-p271:32:32-p272:64:64-i64:64-i128:128-f80:128-n8:16:32:64-S128"
target triple = "x86_64-pc-linux-gnu"

; Function Attrs: mustprogress uwtable
define internal noundef i32 @_ZL30u_scanf_simple_percent_handlerP5UFILEP17u_scanf_spec_infoP9ufmt_argsPKDsPiS7_(ptr noundef %0, ptr noundef %1, ptr noundef %2, ptr noundef %3, ptr noundef %4, ptr noundef %5) #0 {
  %7 = alloca ptr, align 8
  %8 = alloca ptr, align 8
  %9 = alloca ptr, align 8
  %10 = alloca ptr, align 8
  %11 = alloca ptr, align 8
  %12 = alloca ptr, align 8
  store ptr %0, ptr %7, align 8, !tbaa !3
  store ptr %1, ptr %8, align 8, !tbaa !35
  store ptr %2, ptr %9, align 8, !tbaa !50
  store ptr %3, ptr %10, align 8, !tbaa !8
  store ptr %4, ptr %11, align 8, !tbaa !52
  store ptr %5, ptr %12, align 8, !tbaa !52
  %13 = load ptr, ptr %12, align 8, !tbaa !52
  store i32 0, ptr %13, align 4, !tbaa !12
  %14 = load ptr, ptr %7, align 8, !tbaa !3
  %15 = call zeroext i16 @u_fgetc_77(ptr noundef %14)
  %16 = zext i16 %15 to i32
  %17 = icmp ne i32 %16, 37
  br i1 %17, label %18, label %20

18:                                               ; preds = %6
  %19 = load ptr, ptr %12, align 8, !tbaa !52
  store i32 -1, ptr %19, align 4, !tbaa !12
  br label %20

20:                                               ; preds = %18, %6
  ret i32 1
}