; Function Attrs: mustprogress uwtable
define internal noundef i32 @_ZL30u_scanf_simple_percent_handlerP5UFILEP17u_scanf_spec_infoP9ufmt_argsPKDsPiS7_(ptr noundef %0, ptr readnone captures(none) %1, ptr readnone captures(none) %2, ptr readnone captures(none) %3, ptr readnone captures(none) %4, ptr noundef writeonly captures(none) initializes((0, 4)) %5) #0 {
  store i32 0, ptr %5, align 4, !tbaa !3
  %7 = tail call zeroext i16 @u_fgetc_77(ptr noundef %0)
  %.not = icmp eq i16 %7, 37
  br i1 %.not, label %9, label %8

8:                                                ; preds = %6
  store i32 -1, ptr %5, align 4, !tbaa !3
  br label %9

9:                                                ; preds = %8, %6
  ret i32 1
}